; Function Attrs: nounwind uwtable
define void @OSSL_STORE_LOADER_free(ptr noundef %0) local_unnamed_addr #2 {
  %.not = icmp eq ptr %0, null
  br i1 %.not, label %12, label %2

2:                                                ; preds = %1
  %3 = getelementptr inbounds nuw i8, ptr %0, i64 96
  %4 = load ptr, ptr %3, align 8, !tbaa !3
  %.not7 = icmp eq ptr %4, null
  br i1 %.not7, label %12, label %5

5:                                                ; preds = %2
  %6 = getelementptr inbounds nuw i8, ptr %0, i64 128
  %7 = atomicrmw sub ptr %6, i32 1 release, align 4
  %8 = icmp eq i32 %7, 1
  br i1 %8, label %10, label %CRYPTO_DOWN_REF.exit

CRYPTO_DOWN_REF.exit:                             ; preds = %5
  %9 = icmp sgt i32 %7, 1
  br i1 %9, label %.thread, label %.sink.split

10:                                               ; preds = %5
  fence acquire
  br label %.sink.split

.sink.split:                                      ; preds = %CRYPTO_DOWN_REF.exit, %10
  %11 = load ptr, ptr %3, align 8, !tbaa !3
  tail call void @ossl_provider_free(ptr noundef %11) #6
  br label %12

12:                                               ; preds = %.sink.split, %2, %1
  tail call void @CRYPTO_free(ptr noundef %0, ptr noundef nonnull @.str, i32 noundef 39) #6
  br label %.thread

.thread:                                          ; preds = %CRYPTO_DOWN_REF.exit, %12
  ret void
}